Archive member included to satisfy reference by file (symbol)

c:/program files (x86)/atmel/studio/7.0/toolchain/avr8/avr8-gnu-toolchain/bin/../lib/gcc/avr/4.9.2/avr6\libgcc.a(_exit.o)
                              C:/Program Files (x86)/Atmel/Studio/7.0/Packs/atmel/ATmega_DFP/1.1.130/gcc/dev/atmega2560/avr6/crtatmega2560.o (exit)
c:/program files (x86)/atmel/studio/7.0/toolchain/avr8/avr8-gnu-toolchain/bin/../lib/gcc/avr/4.9.2/avr6\libgcc.a(_tablejump2.o)
                              lib/helius_microrl/microrl.o (__tablejump2__)
c:/program files (x86)/atmel/studio/7.0/toolchain/avr8/avr8-gnu-toolchain/bin/../lib/gcc/avr/4.9.2/avr6\libgcc.a(_copy_data.o)
                              lib/hd44780_111/hd44780.o (__do_copy_data)
c:/program files (x86)/atmel/studio/7.0/toolchain/avr8/avr8-gnu-toolchain/bin/../lib/gcc/avr/4.9.2/avr6\libgcc.a(_clear_bss.o)
                              lib/andygock_avr-uart/uart.o (__do_clear_bss)
c:/program files (x86)/atmel/studio/7.0/toolchain/avr8/avr8-gnu-toolchain/bin/../lib/gcc/avr/4.9.2/../../../../avr/lib/avr6\libc.a(assert.o)
                              lib/hd44780_111/hd44780.o (__assert)
c:/program files (x86)/atmel/studio/7.0/toolchain/avr8/avr8-gnu-toolchain/bin/../lib/gcc/avr/4.9.2/../../../../avr/lib/avr6\libc.a(malloc.o)
                              src/cli_microrl.o (malloc)
c:/program files (x86)/atmel/studio/7.0/toolchain/avr8/avr8-gnu-toolchain/bin/../lib/gcc/avr/4.9.2/../../../../avr/lib/avr6\libc.a(abort.o)
                              c:/program files (x86)/atmel/studio/7.0/toolchain/avr8/avr8-gnu-toolchain/bin/../lib/gcc/avr/4.9.2/../../../../avr/lib/avr6\libc.a(assert.o) (abort)
c:/program files (x86)/atmel/studio/7.0/toolchain/avr8/avr8-gnu-toolchain/bin/../lib/gcc/avr/4.9.2/../../../../avr/lib/avr6\libc.a(strcmp_P.o)
                              src/cli_microrl.o (strcmp_P)
c:/program files (x86)/atmel/studio/7.0/toolchain/avr8/avr8-gnu-toolchain/bin/../lib/gcc/avr/4.9.2/../../../../avr/lib/avr6\libc.a(strncmp_P.o)
                              src/cli_microrl.o (strncmp_P)
c:/program files (x86)/atmel/studio/7.0/toolchain/avr8/avr8-gnu-toolchain/bin/../lib/gcc/avr/4.9.2/../../../../avr/lib/avr6\libc.a(memcmp.o)
                              src/rfid.o (memcmp)
c:/program files (x86)/atmel/studio/7.0/toolchain/avr8/avr8-gnu-toolchain/bin/../lib/gcc/avr/4.9.2/../../../../avr/lib/avr6\libc.a(memcpy.o)
                              lib/matejx_avr_lib/mfrc522.o (memcpy)
c:/program files (x86)/atmel/studio/7.0/toolchain/avr8/avr8-gnu-toolchain/bin/../lib/gcc/avr/4.9.2/../../../../avr/lib/avr6\libc.a(memmove.o)
                              lib/helius_microrl/microrl.o (memmove)
c:/program files (x86)/atmel/studio/7.0/toolchain/avr8/avr8-gnu-toolchain/bin/../lib/gcc/avr/4.9.2/../../../../avr/lib/avr6\libc.a(strcat.o)
                              src/rfid.o (strcat)
c:/program files (x86)/atmel/studio/7.0/toolchain/avr8/avr8-gnu-toolchain/bin/../lib/gcc/avr/4.9.2/../../../../avr/lib/avr6\libc.a(strcmp.o)
                              src/rfid.o (strcmp)
c:/program files (x86)/atmel/studio/7.0/toolchain/avr8/avr8-gnu-toolchain/bin/../lib/gcc/avr/4.9.2/../../../../avr/lib/avr6\libc.a(strcpy.o)
                              src/cli_microrl.o (strcpy)
c:/program files (x86)/atmel/studio/7.0/toolchain/avr8/avr8-gnu-toolchain/bin/../lib/gcc/avr/4.9.2/../../../../avr/lib/avr6\libc.a(fprintf.o)
                              src/print_helper.o (fprintf)
c:/program files (x86)/atmel/studio/7.0/toolchain/avr8/avr8-gnu-toolchain/bin/../lib/gcc/avr/4.9.2/../../../../avr/lib/avr6\libc.a(fprintf_p.o)
                              src/cli_microrl.o (fprintf_P)
c:/program files (x86)/atmel/studio/7.0/toolchain/avr8/avr8-gnu-toolchain/bin/../lib/gcc/avr/4.9.2/../../../../avr/lib/avr6\libc.a(fputc.o)
                              src/cli_microrl.o (fputc)
c:/program files (x86)/atmel/studio/7.0/toolchain/avr8/avr8-gnu-toolchain/bin/../lib/gcc/avr/4.9.2/../../../../avr/lib/avr6\libc.a(iob.o)
                              src/cli_microrl.o (__iob)
c:/program files (x86)/atmel/studio/7.0/toolchain/avr8/avr8-gnu-toolchain/bin/../lib/gcc/avr/4.9.2/../../../../avr/lib/avr6\libc.a(printf.o)
                              src/cli_microrl.o (printf)
c:/program files (x86)/atmel/studio/7.0/toolchain/avr8/avr8-gnu-toolchain/bin/../lib/gcc/avr/4.9.2/../../../../avr/lib/avr6\libc.a(printf_p.o)
                              src/cli_microrl.o (printf_P)
c:/program files (x86)/atmel/studio/7.0/toolchain/avr8/avr8-gnu-toolchain/bin/../lib/gcc/avr/4.9.2/../../../../avr/lib/avr6\libc.a(snprintf.o)
                              lib/helius_microrl/microrl.o (snprintf)
c:/program files (x86)/atmel/studio/7.0/toolchain/avr8/avr8-gnu-toolchain/bin/../lib/gcc/avr/4.9.2/../../../../avr/lib/avr6\libc.a(sprintf.o)
                              src/rfid.o (sprintf)
c:/program files (x86)/atmel/studio/7.0/toolchain/avr8/avr8-gnu-toolchain/bin/../lib/gcc/avr/4.9.2/../../../../avr/lib/avr6\libc.a(vfprintf_std.o)
                              c:/program files (x86)/atmel/studio/7.0/toolchain/avr8/avr8-gnu-toolchain/bin/../lib/gcc/avr/4.9.2/../../../../avr/lib/avr6\libc.a(fprintf.o) (vfprintf)
c:/program files (x86)/atmel/studio/7.0/toolchain/avr8/avr8-gnu-toolchain/bin/../lib/gcc/avr/4.9.2/../../../../avr/lib/avr6\libc.a(strnlen_P.o)
                              c:/program files (x86)/atmel/studio/7.0/toolchain/avr8/avr8-gnu-toolchain/bin/../lib/gcc/avr/4.9.2/../../../../avr/lib/avr6\libc.a(vfprintf_std.o) (strnlen_P)
c:/program files (x86)/atmel/studio/7.0/toolchain/avr8/avr8-gnu-toolchain/bin/../lib/gcc/avr/4.9.2/../../../../avr/lib/avr6\libc.a(strnlen.o)
                              c:/program files (x86)/atmel/studio/7.0/toolchain/avr8/avr8-gnu-toolchain/bin/../lib/gcc/avr/4.9.2/../../../../avr/lib/avr6\libc.a(vfprintf_std.o) (strnlen)
c:/program files (x86)/atmel/studio/7.0/toolchain/avr8/avr8-gnu-toolchain/bin/../lib/gcc/avr/4.9.2/../../../../avr/lib/avr6\libc.a(ultoa_invert.o)
                              c:/program files (x86)/atmel/studio/7.0/toolchain/avr8/avr8-gnu-toolchain/bin/../lib/gcc/avr/4.9.2/../../../../avr/lib/avr6\libc.a(vfprintf_std.o) (__ultoa_invert)

Allocating common symbols
Common symbol       size              file

rl                  0x71              src/main.o
__brkval            0x2               c:/program files (x86)/atmel/studio/7.0/toolchain/avr8/avr8-gnu-toolchain/bin/../lib/gcc/avr/4.9.2/../../../../avr/lib/avr6\libc.a(malloc.o)
system_time         0x4               src/main.o
__flp               0x2               c:/program files (x86)/atmel/studio/7.0/toolchain/avr8/avr8-gnu-toolchain/bin/../lib/gcc/avr/4.9.2/../../../../avr/lib/avr6\libc.a(malloc.o)
__iob               0x6               c:/program files (x86)/atmel/studio/7.0/toolchain/avr8/avr8-gnu-toolchain/bin/../lib/gcc/avr/4.9.2/../../../../avr/lib/avr6\libc.a(iob.o)

Discarded input sections

 .data          0x00000000        0x0 C:/Program Files (x86)/Atmel/Studio/7.0/Packs/atmel/ATmega_DFP/1.1.130/gcc/dev/atmega2560/avr6/crtatmega2560.o
 .bss           0x00000000        0x0 C:/Program Files (x86)/Atmel/Studio/7.0/Packs/atmel/ATmega_DFP/1.1.130/gcc/dev/atmega2560/avr6/crtatmega2560.o
 .text          0x00000000        0x0 lib/andygock_avr-uart/uart.o
 .data          0x00000000        0x0 lib/andygock_avr-uart/uart.o
 .bss           0x00000000        0x0 lib/andygock_avr-uart/uart.o
 .text.uart0_puts
                0x00000000       0x1e lib/andygock_avr-uart/uart.o
 .text.uart0_puts_p
                0x00000000       0x24 lib/andygock_avr-uart/uart.o
 .text.uart0_available
                0x00000000       0x18 lib/andygock_avr-uart/uart.o
 .text.uart0_flush
                0x00000000        0xa lib/andygock_avr-uart/uart.o
 .text.uart3_getc
                0x00000000       0x3a lib/andygock_avr-uart/uart.o
 .text.uart3_peek
                0x00000000       0x34 lib/andygock_avr-uart/uart.o
 .text.uart3_puts
                0x00000000       0x1e lib/andygock_avr-uart/uart.o
 .text.uart3_puts_p
                0x00000000       0x24 lib/andygock_avr-uart/uart.o
 .text.uart3_available
                0x00000000       0x18 lib/andygock_avr-uart/uart.o
 .text.uart3_flush
                0x00000000        0xa lib/andygock_avr-uart/uart.o
 .text          0x00000000        0x0 lib/andy_brown_memdebug/memdebug.o
 .data          0x00000000        0x0 lib/andy_brown_memdebug/memdebug.o
 .bss           0x00000000        0x0 lib/andy_brown_memdebug/memdebug.o
 .text          0x00000000        0x0 lib/hd44780_111/hd44780.o
 .data          0x00000000        0x0 lib/hd44780_111/hd44780.o
 .bss           0x00000000        0x0 lib/hd44780_111/hd44780.o
 .text.lcd_home
                0x00000000        0x8 lib/hd44780_111/hd44780.o
 .text          0x00000000        0x0 lib/helius_microrl/microrl.o
 .data          0x00000000        0x0 lib/helius_microrl/microrl.o
 .bss           0x00000000        0x0 lib/helius_microrl/microrl.o
 .text.microrl_set_complete_callback
                0x00000000        0xc lib/helius_microrl/microrl.o
 .text          0x00000000        0x0 lib/matejx_avr_lib/mfrc522.o
 .data          0x00000000        0x0 lib/matejx_avr_lib/mfrc522.o
 .bss           0x00000000        0x0 lib/matejx_avr_lib/mfrc522.o
 .text.PICC_WakeupA
                0x00000000        0xc lib/matejx_avr_lib/mfrc522.o
 .text.PICC_HaltA
                0x00000000       0x6e lib/matejx_avr_lib/mfrc522.o
 .text.PCD_Authenticate
                0x00000000       0x94 lib/matejx_avr_lib/mfrc522.o
 .text.PCD_StopCrypto1
                0x00000000        0xa lib/matejx_avr_lib/mfrc522.o
 .text.MIFARE_Read
                0x00000000       0x6a lib/matejx_avr_lib/mfrc522.o
 .text.PCD_MIFARE_Transceive
                0x00000000       0xde lib/matejx_avr_lib/mfrc522.o
 .text.MIFARE_Write
                0x00000000       0x58 lib/matejx_avr_lib/mfrc522.o
 .text          0x00000000        0x0 lib/matejx_avr_lib/spi.o
 .data          0x00000000        0x0 lib/matejx_avr_lib/spi.o
 .bss           0x00000000        0x0 lib/matejx_avr_lib/spi.o
 .text          0x00000000        0x0 src/cli_microrl.o
 .data          0x00000000        0x0 src/cli_microrl.o
 .bss           0x00000000        0x0 src/cli_microrl.o
 .text          0x00000000        0x0 src/hmi_msg.o
 .data          0x00000000        0x0 src/hmi_msg.o
 .bss           0x00000000        0x0 src/hmi_msg.o
 .text          0x00000000        0x0 src/main.o
 .data          0x00000000        0x0 src/main.o
 .bss           0x00000000        0x0 src/main.o
 .text          0x00000000        0x0 src/print_helper.o
 .data          0x00000000        0x0 src/print_helper.o
 .bss           0x00000000        0x0 src/print_helper.o
 .text          0x00000000        0x0 src/rfid.o
 .data          0x00000000        0x0 src/rfid.o
 .bss           0x00000000        0x0 src/rfid.o
 .text          0x00000000        0x0 src/uart-wrapper.o
 .data          0x00000000        0x0 src/uart-wrapper.o
 .bss           0x00000000        0x0 src/uart-wrapper.o
 .text          0x00000000        0x0 c:/program files (x86)/atmel/studio/7.0/toolchain/avr8/avr8-gnu-toolchain/bin/../lib/gcc/avr/4.9.2/avr6\libgcc.a(_exit.o)
 .data          0x00000000        0x0 c:/program files (x86)/atmel/studio/7.0/toolchain/avr8/avr8-gnu-toolchain/bin/../lib/gcc/avr/4.9.2/avr6\libgcc.a(_exit.o)
 .bss           0x00000000        0x0 c:/program files (x86)/atmel/studio/7.0/toolchain/avr8/avr8-gnu-toolchain/bin/../lib/gcc/avr/4.9.2/avr6\libgcc.a(_exit.o)
 .text.libgcc.mul
                0x00000000        0x0 c:/program files (x86)/atmel/studio/7.0/toolchain/avr8/avr8-gnu-toolchain/bin/../lib/gcc/avr/4.9.2/avr6\libgcc.a(_exit.o)
 .text.libgcc.div
                0x00000000        0x0 c:/program files (x86)/atmel/studio/7.0/toolchain/avr8/avr8-gnu-toolchain/bin/../lib/gcc/avr/4.9.2/avr6\libgcc.a(_exit.o)
 .text.libgcc   0x00000000        0x0 c:/program files (x86)/atmel/studio/7.0/toolchain/avr8/avr8-gnu-toolchain/bin/../lib/gcc/avr/4.9.2/avr6\libgcc.a(_exit.o)
 .text.libgcc.prologue
                0x00000000        0x0 c:/program files (x86)/atmel/studio/7.0/toolchain/avr8/avr8-gnu-toolchain/bin/../lib/gcc/avr/4.9.2/avr6\libgcc.a(_exit.o)
 .text.libgcc.builtins
                0x00000000        0x0 c:/program files (x86)/atmel/studio/7.0/toolchain/avr8/avr8-gnu-toolchain/bin/../lib/gcc/avr/4.9.2/avr6\libgcc.a(_exit.o)
 .text.libgcc.fmul
                0x00000000        0x0 c:/program files (x86)/atmel/studio/7.0/toolchain/avr8/avr8-gnu-toolchain/bin/../lib/gcc/avr/4.9.2/avr6\libgcc.a(_exit.o)
 .text.libgcc.fixed
                0x00000000        0x0 c:/program files (x86)/atmel/studio/7.0/toolchain/avr8/avr8-gnu-toolchain/bin/../lib/gcc/avr/4.9.2/avr6\libgcc.a(_exit.o)
 .text          0x00000000        0x0 c:/program files (x86)/atmel/studio/7.0/toolchain/avr8/avr8-gnu-toolchain/bin/../lib/gcc/avr/4.9.2/avr6\libgcc.a(_tablejump2.o)
 .data          0x00000000        0x0 c:/program files (x86)/atmel/studio/7.0/toolchain/avr8/avr8-gnu-toolchain/bin/../lib/gcc/avr/4.9.2/avr6\libgcc.a(_tablejump2.o)
 .bss           0x00000000        0x0 c:/program files (x86)/atmel/studio/7.0/toolchain/avr8/avr8-gnu-toolchain/bin/../lib/gcc/avr/4.9.2/avr6\libgcc.a(_tablejump2.o)
 .text.libgcc.mul
                0x00000000        0x0 c:/program files (x86)/atmel/studio/7.0/toolchain/avr8/avr8-gnu-toolchain/bin/../lib/gcc/avr/4.9.2/avr6\libgcc.a(_tablejump2.o)
 .text.libgcc.div
                0x00000000        0x0 c:/program files (x86)/atmel/studio/7.0/toolchain/avr8/avr8-gnu-toolchain/bin/../lib/gcc/avr/4.9.2/avr6\libgcc.a(_tablejump2.o)
 .text.libgcc.prologue
                0x00000000        0x0 c:/program files (x86)/atmel/studio/7.0/toolchain/avr8/avr8-gnu-toolchain/bin/../lib/gcc/avr/4.9.2/avr6\libgcc.a(_tablejump2.o)
 .text.libgcc.builtins
                0x00000000        0x0 c:/program files (x86)/atmel/studio/7.0/toolchain/avr8/avr8-gnu-toolchain/bin/../lib/gcc/avr/4.9.2/avr6\libgcc.a(_tablejump2.o)
 .text.libgcc.fmul
                0x00000000        0x0 c:/program files (x86)/atmel/studio/7.0/toolchain/avr8/avr8-gnu-toolchain/bin/../lib/gcc/avr/4.9.2/avr6\libgcc.a(_tablejump2.o)
 .text.libgcc.fixed
                0x00000000        0x0 c:/program files (x86)/atmel/studio/7.0/toolchain/avr8/avr8-gnu-toolchain/bin/../lib/gcc/avr/4.9.2/avr6\libgcc.a(_tablejump2.o)
 .text          0x00000000        0x0 c:/program files (x86)/atmel/studio/7.0/toolchain/avr8/avr8-gnu-toolchain/bin/../lib/gcc/avr/4.9.2/avr6\libgcc.a(_copy_data.o)
 .data          0x00000000        0x0 c:/program files (x86)/atmel/studio/7.0/toolchain/avr8/avr8-gnu-toolchain/bin/../lib/gcc/avr/4.9.2/avr6\libgcc.a(_copy_data.o)
 .bss           0x00000000        0x0 c:/program files (x86)/atmel/studio/7.0/toolchain/avr8/avr8-gnu-toolchain/bin/../lib/gcc/avr/4.9.2/avr6\libgcc.a(_copy_data.o)
 .text.libgcc.mul
                0x00000000        0x0 c:/program files (x86)/atmel/studio/7.0/toolchain/avr8/avr8-gnu-toolchain/bin/../lib/gcc/avr/4.9.2/avr6\libgcc.a(_copy_data.o)
 .text.libgcc.div
                0x00000000        0x0 c:/program files (x86)/atmel/studio/7.0/toolchain/avr8/avr8-gnu-toolchain/bin/../lib/gcc/avr/4.9.2/avr6\libgcc.a(_copy_data.o)
 .text.libgcc   0x00000000        0x0 c:/program files (x86)/atmel/studio/7.0/toolchain/avr8/avr8-gnu-toolchain/bin/../lib/gcc/avr/4.9.2/avr6\libgcc.a(_copy_data.o)
 .text.libgcc.prologue
                0x00000000        0x0 c:/program files (x86)/atmel/studio/7.0/toolchain/avr8/avr8-gnu-toolchain/bin/../lib/gcc/avr/4.9.2/avr6\libgcc.a(_copy_data.o)
 .text.libgcc.builtins
                0x00000000        0x0 c:/program files (x86)/atmel/studio/7.0/toolchain/avr8/avr8-gnu-toolchain/bin/../lib/gcc/avr/4.9.2/avr6\libgcc.a(_copy_data.o)
 .text.libgcc.fmul
                0x00000000        0x0 c:/program files (x86)/atmel/studio/7.0/toolchain/avr8/avr8-gnu-toolchain/bin/../lib/gcc/avr/4.9.2/avr6\libgcc.a(_copy_data.o)
 .text.libgcc.fixed
                0x00000000        0x0 c:/program files (x86)/atmel/studio/7.0/toolchain/avr8/avr8-gnu-toolchain/bin/../lib/gcc/avr/4.9.2/avr6\libgcc.a(_copy_data.o)
 .text          0x00000000        0x0 c:/program files (x86)/atmel/studio/7.0/toolchain/avr8/avr8-gnu-toolchain/bin/../lib/gcc/avr/4.9.2/avr6\libgcc.a(_clear_bss.o)
 .data          0x00000000        0x0 c:/program files (x86)/atmel/studio/7.0/toolchain/avr8/avr8-gnu-toolchain/bin/../lib/gcc/avr/4.9.2/avr6\libgcc.a(_clear_bss.o)
 .bss           0x00000000        0x0 c:/program files (x86)/atmel/studio/7.0/toolchain/avr8/avr8-gnu-toolchain/bin/../lib/gcc/avr/4.9.2/avr6\libgcc.a(_clear_bss.o)
 .text.libgcc.mul
                0x00000000        0x0 c:/program files (x86)/atmel/studio/7.0/toolchain/avr8/avr8-gnu-toolchain/bin/../lib/gcc/avr/4.9.2/avr6\libgcc.a(_clear_bss.o)
 .text.libgcc.div
                0x00000000        0x0 c:/program files (x86)/atmel/studio/7.0/toolchain/avr8/avr8-gnu-toolchain/bin/../lib/gcc/avr/4.9.2/avr6\libgcc.a(_clear_bss.o)
 .text.libgcc   0x00000000        0x0 c:/program files (x86)/atmel/studio/7.0/toolchain/avr8/avr8-gnu-toolchain/bin/../lib/gcc/avr/4.9.2/avr6\libgcc.a(_clear_bss.o)
 .text.libgcc.prologue
                0x00000000        0x0 c:/program files (x86)/atmel/studio/7.0/toolchain/avr8/avr8-gnu-toolchain/bin/../lib/gcc/avr/4.9.2/avr6\libgcc.a(_clear_bss.o)
 .text.libgcc.builtins
                0x00000000        0x0 c:/program files (x86)/atmel/studio/7.0/toolchain/avr8/avr8-gnu-toolchain/bin/../lib/gcc/avr/4.9.2/avr6\libgcc.a(_clear_bss.o)
 .text.libgcc.fmul
                0x00000000        0x0 c:/program files (x86)/atmel/studio/7.0/toolchain/avr8/avr8-gnu-toolchain/bin/../lib/gcc/avr/4.9.2/avr6\libgcc.a(_clear_bss.o)
 .text.libgcc.fixed
                0x00000000        0x0 c:/program files (x86)/atmel/studio/7.0/toolchain/avr8/avr8-gnu-toolchain/bin/../lib/gcc/avr/4.9.2/avr6\libgcc.a(_clear_bss.o)
 .text          0x00000000        0x0 c:/program files (x86)/atmel/studio/7.0/toolchain/avr8/avr8-gnu-toolchain/bin/../lib/gcc/avr/4.9.2/../../../../avr/lib/avr6\libc.a(assert.o)
 .data          0x00000000        0x0 c:/program files (x86)/atmel/studio/7.0/toolchain/avr8/avr8-gnu-toolchain/bin/../lib/gcc/avr/4.9.2/../../../../avr/lib/avr6\libc.a(assert.o)
 .bss           0x00000000        0x0 c:/program files (x86)/atmel/studio/7.0/toolchain/avr8/avr8-gnu-toolchain/bin/../lib/gcc/avr/4.9.2/../../../../avr/lib/avr6\libc.a(assert.o)
 .text          0x00000000        0x0 c:/program files (x86)/atmel/studio/7.0/toolchain/avr8/avr8-gnu-toolchain/bin/../lib/gcc/avr/4.9.2/../../../../avr/lib/avr6\libc.a(malloc.o)
 .bss           0x00000000        0x0 c:/program files (x86)/atmel/studio/7.0/toolchain/avr8/avr8-gnu-toolchain/bin/../lib/gcc/avr/4.9.2/../../../../avr/lib/avr6\libc.a(malloc.o)
 .text          0x00000000        0x0 c:/program files (x86)/atmel/studio/7.0/toolchain/avr8/avr8-gnu-toolchain/bin/../lib/gcc/avr/4.9.2/../../../../avr/lib/avr6\libc.a(abort.o)
 .data          0x00000000        0x0 c:/program files (x86)/atmel/studio/7.0/toolchain/avr8/avr8-gnu-toolchain/bin/../lib/gcc/avr/4.9.2/../../../../avr/lib/avr6\libc.a(abort.o)
 .bss           0x00000000        0x0 c:/program files (x86)/atmel/studio/7.0/toolchain/avr8/avr8-gnu-toolchain/bin/../lib/gcc/avr/4.9.2/../../../../avr/lib/avr6\libc.a(abort.o)
 .text          0x00000000        0x0 c:/program files (x86)/atmel/studio/7.0/toolchain/avr8/avr8-gnu-toolchain/bin/../lib/gcc/avr/4.9.2/../../../../avr/lib/avr6\libc.a(strcmp_P.o)
 .data          0x00000000        0x0 c:/program files (x86)/atmel/studio/7.0/toolchain/avr8/avr8-gnu-toolchain/bin/../lib/gcc/avr/4.9.2/../../../../avr/lib/avr6\libc.a(strcmp_P.o)
 .bss           0x00000000        0x0 c:/program files (x86)/atmel/studio/7.0/toolchain/avr8/avr8-gnu-toolchain/bin/../lib/gcc/avr/4.9.2/../../../../avr/lib/avr6\libc.a(strcmp_P.o)
 .text          0x00000000        0x0 c:/program files (x86)/atmel/studio/7.0/toolchain/avr8/avr8-gnu-toolchain/bin/../lib/gcc/avr/4.9.2/../../../../avr/lib/avr6\libc.a(strncmp_P.o)
 .data          0x00000000        0x0 c:/program files (x86)/atmel/studio/7.0/toolchain/avr8/avr8-gnu-toolchain/bin/../lib/gcc/avr/4.9.2/../../../../avr/lib/avr6\libc.a(strncmp_P.o)
 .bss           0x00000000        0x0 c:/program files (x86)/atmel/studio/7.0/toolchain/avr8/avr8-gnu-toolchain/bin/../lib/gcc/avr/4.9.2/../../../../avr/lib/avr6\libc.a(strncmp_P.o)
 .text          0x00000000        0x0 c:/program files (x86)/atmel/studio/7.0/toolchain/avr8/avr8-gnu-toolchain/bin/../lib/gcc/avr/4.9.2/../../../../avr/lib/avr6\libc.a(memcmp.o)
 .data          0x00000000        0x0 c:/program files (x86)/atmel/studio/7.0/toolchain/avr8/avr8-gnu-toolchain/bin/../lib/gcc/avr/4.9.2/../../../../avr/lib/avr6\libc.a(memcmp.o)
 .bss           0x00000000        0x0 c:/program files (x86)/atmel/studio/7.0/toolchain/avr8/avr8-gnu-toolchain/bin/../lib/gcc/avr/4.9.2/../../../../avr/lib/avr6\libc.a(memcmp.o)
 .text          0x00000000        0x0 c:/program files (x86)/atmel/studio/7.0/toolchain/avr8/avr8-gnu-toolchain/bin/../lib/gcc/avr/4.9.2/../../../../avr/lib/avr6\libc.a(memcpy.o)
 .data          0x00000000        0x0 c:/program files (x86)/atmel/studio/7.0/toolchain/avr8/avr8-gnu-toolchain/bin/../lib/gcc/avr/4.9.2/../../../../avr/lib/avr6\libc.a(memcpy.o)
 .bss           0x00000000        0x0 c:/program files (x86)/atmel/studio/7.0/toolchain/avr8/avr8-gnu-toolchain/bin/../lib/gcc/avr/4.9.2/../../../../avr/lib/avr6\libc.a(memcpy.o)
 .text          0x00000000        0x0 c:/program files (x86)/atmel/studio/7.0/toolchain/avr8/avr8-gnu-toolchain/bin/../lib/gcc/avr/4.9.2/../../../../avr/lib/avr6\libc.a(memmove.o)
 .data          0x00000000        0x0 c:/program files (x86)/atmel/studio/7.0/toolchain/avr8/avr8-gnu-toolchain/bin/../lib/gcc/avr/4.9.2/../../../../avr/lib/avr6\libc.a(memmove.o)
 .bss           0x00000000        0x0 c:/program files (x86)/atmel/studio/7.0/toolchain/avr8/avr8-gnu-toolchain/bin/../lib/gcc/avr/4.9.2/../../../../avr/lib/avr6\libc.a(memmove.o)
 .text          0x00000000        0x0 c:/program files (x86)/atmel/studio/7.0/toolchain/avr8/avr8-gnu-toolchain/bin/../lib/gcc/avr/4.9.2/../../../../avr/lib/avr6\libc.a(strcat.o)
 .data          0x00000000        0x0 c:/program files (x86)/atmel/studio/7.0/toolchain/avr8/avr8-gnu-toolchain/bin/../lib/gcc/avr/4.9.2/../../../../avr/lib/avr6\libc.a(strcat.o)
 .bss           0x00000000        0x0 c:/program files (x86)/atmel/studio/7.0/toolchain/avr8/avr8-gnu-toolchain/bin/../lib/gcc/avr/4.9.2/../../../../avr/lib/avr6\libc.a(strcat.o)
 .text          0x00000000        0x0 c:/program files (x86)/atmel/studio/7.0/toolchain/avr8/avr8-gnu-toolchain/bin/../lib/gcc/avr/4.9.2/../../../../avr/lib/avr6\libc.a(strcmp.o)
 .data          0x00000000        0x0 c:/program files (x86)/atmel/studio/7.0/toolchain/avr8/avr8-gnu-toolchain/bin/../lib/gcc/avr/4.9.2/../../../../avr/lib/avr6\libc.a(strcmp.o)
 .bss           0x00000000        0x0 c:/program files (x86)/atmel/studio/7.0/toolchain/avr8/avr8-gnu-toolchain/bin/../lib/gcc/avr/4.9.2/../../../../avr/lib/avr6\libc.a(strcmp.o)
 .text          0x00000000        0x0 c:/program files (x86)/atmel/studio/7.0/toolchain/avr8/avr8-gnu-toolchain/bin/../lib/gcc/avr/4.9.2/../../../../avr/lib/avr6\libc.a(strcpy.o)
 .data          0x00000000        0x0 c:/program files (x86)/atmel/studio/7.0/toolchain/avr8/avr8-gnu-toolchain/bin/../lib/gcc/avr/4.9.2/../../../../avr/lib/avr6\libc.a(strcpy.o)
 .bss           0x00000000        0x0 c:/program files (x86)/atmel/studio/7.0/toolchain/avr8/avr8-gnu-toolchain/bin/../lib/gcc/avr/4.9.2/../../../../avr/lib/avr6\libc.a(strcpy.o)
 .text          0x00000000        0x0 c:/program files (x86)/atmel/studio/7.0/toolchain/avr8/avr8-gnu-toolchain/bin/../lib/gcc/avr/4.9.2/../../../../avr/lib/avr6\libc.a(fprintf.o)
 .data          0x00000000        0x0 c:/program files (x86)/atmel/studio/7.0/toolchain/avr8/avr8-gnu-toolchain/bin/../lib/gcc/avr/4.9.2/../../../../avr/lib/avr6\libc.a(fprintf.o)
 .bss           0x00000000        0x0 c:/program files (x86)/atmel/studio/7.0/toolchain/avr8/avr8-gnu-toolchain/bin/../lib/gcc/avr/4.9.2/../../../../avr/lib/avr6\libc.a(fprintf.o)
 .text          0x00000000        0x0 c:/program files (x86)/atmel/studio/7.0/toolchain/avr8/avr8-gnu-toolchain/bin/../lib/gcc/avr/4.9.2/../../../../avr/lib/avr6\libc.a(fprintf_p.o)
 .data          0x00000000        0x0 c:/program files (x86)/atmel/studio/7.0/toolchain/avr8/avr8-gnu-toolchain/bin/../lib/gcc/avr/4.9.2/../../../../avr/lib/avr6\libc.a(fprintf_p.o)
 .bss           0x00000000        0x0 c:/program files (x86)/atmel/studio/7.0/toolchain/avr8/avr8-gnu-toolchain/bin/../lib/gcc/avr/4.9.2/../../../../avr/lib/avr6\libc.a(fprintf_p.o)
 .text          0x00000000        0x0 c:/program files (x86)/atmel/studio/7.0/toolchain/avr8/avr8-gnu-toolchain/bin/../lib/gcc/avr/4.9.2/../../../../avr/lib/avr6\libc.a(fputc.o)
 .data          0x00000000        0x0 c:/program files (x86)/atmel/studio/7.0/toolchain/avr8/avr8-gnu-toolchain/bin/../lib/gcc/avr/4.9.2/../../../../avr/lib/avr6\libc.a(fputc.o)
 .bss           0x00000000        0x0 c:/program files (x86)/atmel/studio/7.0/toolchain/avr8/avr8-gnu-toolchain/bin/../lib/gcc/avr/4.9.2/../../../../avr/lib/avr6\libc.a(fputc.o)
 .text          0x00000000        0x0 c:/program files (x86)/atmel/studio/7.0/toolchain/avr8/avr8-gnu-toolchain/bin/../lib/gcc/avr/4.9.2/../../../../avr/lib/avr6\libc.a(iob.o)
 .data          0x00000000        0x0 c:/program files (x86)/atmel/studio/7.0/toolchain/avr8/avr8-gnu-toolchain/bin/../lib/gcc/avr/4.9.2/../../../../avr/lib/avr6\libc.a(iob.o)
 .bss           0x00000000        0x0 c:/program files (x86)/atmel/studio/7.0/toolchain/avr8/avr8-gnu-toolchain/bin/../lib/gcc/avr/4.9.2/../../../../avr/lib/avr6\libc.a(iob.o)
 .text          0x00000000        0x0 c:/program files (x86)/atmel/studio/7.0/toolchain/avr8/avr8-gnu-toolchain/bin/../lib/gcc/avr/4.9.2/../../../../avr/lib/avr6\libc.a(printf.o)
 .data          0x00000000        0x0 c:/program files (x86)/atmel/studio/7.0/toolchain/avr8/avr8-gnu-toolchain/bin/../lib/gcc/avr/4.9.2/../../../../avr/lib/avr6\libc.a(printf.o)
 .bss           0x00000000        0x0 c:/program files (x86)/atmel/studio/7.0/toolchain/avr8/avr8-gnu-toolchain/bin/../lib/gcc/avr/4.9.2/../../../../avr/lib/avr6\libc.a(printf.o)
 .text          0x00000000        0x0 c:/program files (x86)/atmel/studio/7.0/toolchain/avr8/avr8-gnu-toolchain/bin/../lib/gcc/avr/4.9.2/../../../../avr/lib/avr6\libc.a(printf_p.o)
 .data          0x00000000        0x0 c:/program files (x86)/atmel/studio/7.0/toolchain/avr8/avr8-gnu-toolchain/bin/../lib/gcc/avr/4.9.2/../../../../avr/lib/avr6\libc.a(printf_p.o)
 .bss           0x00000000        0x0 c:/program files (x86)/atmel/studio/7.0/toolchain/avr8/avr8-gnu-toolchain/bin/../lib/gcc/avr/4.9.2/../../../../avr/lib/avr6\libc.a(printf_p.o)
 .text          0x00000000        0x0 c:/program files (x86)/atmel/studio/7.0/toolchain/avr8/avr8-gnu-toolchain/bin/../lib/gcc/avr/4.9.2/../../../../avr/lib/avr6\libc.a(snprintf.o)
 .data          0x00000000        0x0 c:/program files (x86)/atmel/studio/7.0/toolchain/avr8/avr8-gnu-toolchain/bin/../lib/gcc/avr/4.9.2/../../../../avr/lib/avr6\libc.a(snprintf.o)
 .bss           0x00000000        0x0 c:/program files (x86)/atmel/studio/7.0/toolchain/avr8/avr8-gnu-toolchain/bin/../lib/gcc/avr/4.9.2/../../../../avr/lib/avr6\libc.a(snprintf.o)
 .text          0x00000000        0x0 c:/program files (x86)/atmel/studio/7.0/toolchain/avr8/avr8-gnu-toolchain/bin/../lib/gcc/avr/4.9.2/../../../../avr/lib/avr6\libc.a(sprintf.o)
 .data          0x00000000        0x0 c:/program files (x86)/atmel/studio/7.0/toolchain/avr8/avr8-gnu-toolchain/bin/../lib/gcc/avr/4.9.2/../../../../avr/lib/avr6\libc.a(sprintf.o)
 .bss           0x00000000        0x0 c:/program files (x86)/atmel/studio/7.0/toolchain/avr8/avr8-gnu-toolchain/bin/../lib/gcc/avr/4.9.2/../../../../avr/lib/avr6\libc.a(sprintf.o)
 .text          0x00000000        0x0 c:/program files (x86)/atmel/studio/7.0/toolchain/avr8/avr8-gnu-toolchain/bin/../lib/gcc/avr/4.9.2/../../../../avr/lib/avr6\libc.a(vfprintf_std.o)
 .data          0x00000000        0x0 c:/program files (x86)/atmel/studio/7.0/toolchain/avr8/avr8-gnu-toolchain/bin/../lib/gcc/avr/4.9.2/../../../../avr/lib/avr6\libc.a(vfprintf_std.o)
 .bss           0x00000000        0x0 c:/program files (x86)/atmel/studio/7.0/toolchain/avr8/avr8-gnu-toolchain/bin/../lib/gcc/avr/4.9.2/../../../../avr/lib/avr6\libc.a(vfprintf_std.o)
 .text          0x00000000        0x0 c:/program files (x86)/atmel/studio/7.0/toolchain/avr8/avr8-gnu-toolchain/bin/../lib/gcc/avr/4.9.2/../../../../avr/lib/avr6\libc.a(strnlen_P.o)
 .data          0x00000000        0x0 c:/program files (x86)/atmel/studio/7.0/toolchain/avr8/avr8-gnu-toolchain/bin/../lib/gcc/avr/4.9.2/../../../../avr/lib/avr6\libc.a(strnlen_P.o)
 .bss           0x00000000        0x0 c:/program files (x86)/atmel/studio/7.0/toolchain/avr8/avr8-gnu-toolchain/bin/../lib/gcc/avr/4.9.2/../../../../avr/lib/avr6\libc.a(strnlen_P.o)
 .text          0x00000000        0x0 c:/program files (x86)/atmel/studio/7.0/toolchain/avr8/avr8-gnu-toolchain/bin/../lib/gcc/avr/4.9.2/../../../../avr/lib/avr6\libc.a(strnlen.o)
 .data          0x00000000        0x0 c:/program files (x86)/atmel/studio/7.0/toolchain/avr8/avr8-gnu-toolchain/bin/../lib/gcc/avr/4.9.2/../../../../avr/lib/avr6\libc.a(strnlen.o)
 .bss           0x00000000        0x0 c:/program files (x86)/atmel/studio/7.0/toolchain/avr8/avr8-gnu-toolchain/bin/../lib/gcc/avr/4.9.2/../../../../avr/lib/avr6\libc.a(strnlen.o)
 .text          0x00000000        0x0 c:/program files (x86)/atmel/studio/7.0/toolchain/avr8/avr8-gnu-toolchain/bin/../lib/gcc/avr/4.9.2/../../../../avr/lib/avr6\libc.a(ultoa_invert.o)
 .data          0x00000000        0x0 c:/program files (x86)/atmel/studio/7.0/toolchain/avr8/avr8-gnu-toolchain/bin/../lib/gcc/avr/4.9.2/../../../../avr/lib/avr6\libc.a(ultoa_invert.o)
 .bss           0x00000000        0x0 c:/program files (x86)/atmel/studio/7.0/toolchain/avr8/avr8-gnu-toolchain/bin/../lib/gcc/avr/4.9.2/../../../../avr/lib/avr6\libc.a(ultoa_invert.o)

Memory Configuration

Name             Origin             Length             Attributes
text             0x00000000         0x00100000         xr
data             0x00800200         0x0000fe00         rw !x
eeprom           0x00810000         0x00010000         rw !x
fuse             0x00820000         0x00000003         rw !x
lock             0x00830000         0x00000400         rw !x
signature        0x00840000         0x00000400         rw !x
user_signatures  0x00850000         0x00000400         rw !x
*default*        0x00000000         0xffffffff

Linker script and memory map

Address of section .data set to 0x800200
LOAD C:/Program Files (x86)/Atmel/Studio/7.0/Packs/atmel/ATmega_DFP/1.1.130/gcc/dev/atmega2560/avr6/crtatmega2560.o
LOAD lib/andygock_avr-uart/uart.o
LOAD lib/andy_brown_memdebug/memdebug.o
LOAD lib/hd44780_111/hd44780.o
LOAD lib/helius_microrl/microrl.o
LOAD lib/matejx_avr_lib/mfrc522.o
LOAD lib/matejx_avr_lib/spi.o
LOAD src/cli_microrl.o
LOAD src/hmi_msg.o
LOAD src/main.o
LOAD src/print_helper.o
LOAD src/rfid.o
LOAD src/uart-wrapper.o
START GROUP
LOAD c:/program files (x86)/atmel/studio/7.0/toolchain/avr8/avr8-gnu-toolchain/bin/../lib/gcc/avr/4.9.2/../../../../avr/lib/avr6\libm.a
END GROUP
START GROUP
LOAD c:/program files (x86)/atmel/studio/7.0/toolchain/avr8/avr8-gnu-toolchain/bin/../lib/gcc/avr/4.9.2/avr6\libgcc.a
LOAD c:/program files (x86)/atmel/studio/7.0/toolchain/avr8/avr8-gnu-toolchain/bin/../lib/gcc/avr/4.9.2/../../../../avr/lib/avr6\libm.a
LOAD c:/program files (x86)/atmel/studio/7.0/toolchain/avr8/avr8-gnu-toolchain/bin/../lib/gcc/avr/4.9.2/../../../../avr/lib/avr6\libc.a
LOAD C:/Program Files (x86)/Atmel/Studio/7.0/Packs/atmel/ATmega_DFP/1.1.130/gcc/dev/atmega2560/avr6\libatmega2560.a
END GROUP
                0x00100000                __TEXT_REGION_LENGTH__ = DEFINED (__TEXT_REGION_LENGTH__)?__TEXT_REGION_LENGTH__:0x100000
                0x0000fe00                __DATA_REGION_LENGTH__ = DEFINED (__DATA_REGION_LENGTH__)?__DATA_REGION_LENGTH__:0xfe00
                0x00010000                __EEPROM_REGION_LENGTH__ = DEFINED (__EEPROM_REGION_LENGTH__)?__EEPROM_REGION_LENGTH__:0x10000
                [0x00000003]                __FUSE_REGION_LENGTH__ = DEFINED (__FUSE_REGION_LENGTH__)?__FUSE_REGION_LENGTH__:0x400
                0x00000400                __LOCK_REGION_LENGTH__ = DEFINED (__LOCK_REGION_LENGTH__)?__LOCK_REGION_LENGTH__:0x400
                0x00000400                __SIGNATURE_REGION_LENGTH__ = DEFINED (__SIGNATURE_REGION_LENGTH__)?__SIGNATURE_REGION_LENGTH__:0x400
                0x00000400                __USER_SIGNATURE_REGION_LENGTH__ = DEFINED (__USER_SIGNATURE_REGION_LENGTH__)?__USER_SIGNATURE_REGION_LENGTH__:0x400

.hash
 *(.hash)

.dynsym
 *(.dynsym)

.dynstr
 *(.dynstr)

.gnu.version
 *(.gnu.version)

.gnu.version_d
 *(.gnu.version_d)

.gnu.version_r
 *(.gnu.version_r)

.rel.init
 *(.rel.init)

.rela.init
 *(.rela.init)

.rel.text
 *(.rel.text)
 *(.rel.text.*)
 *(.rel.gnu.linkonce.t*)

.rela.text
 *(.rela.text)
 *(.rela.text.*)
 *(.rela.gnu.linkonce.t*)

.rel.fini
 *(.rel.fini)

.rela.fini
 *(.rela.fini)

.rel.rodata
 *(.rel.rodata)
 *(.rel.rodata.*)
 *(.rel.gnu.linkonce.r*)

.rela.rodata
 *(.rela.rodata)
 *(.rela.rodata.*)
 *(.rela.gnu.linkonce.r*)

.rel.data
 *(.rel.data)
 *(.rel.data.*)
 *(.rel.gnu.linkonce.d*)

.rela.data
 *(.rela.data)
 *(.rela.data.*)
 *(.rela.gnu.linkonce.d*)

.rel.ctors
 *(.rel.ctors)

.rela.ctors
 *(.rela.ctors)

.rel.dtors
 *(.rel.dtors)

.rela.dtors
 *(.rela.dtors)

.rel.got
 *(.rel.got)

.rela.got
 *(.rela.got)

.rel.bss
 *(.rel.bss)

.rela.bss
 *(.rela.bss)

.rel.plt
 *(.rel.plt)

.rela.plt
 *(.rela.plt)

.text           0x00000000     0x37b8
 *(.vectors)
 .vectors       0x00000000       0xe4 C:/Program Files (x86)/Atmel/Studio/7.0/Packs/atmel/ATmega_DFP/1.1.130/gcc/dev/atmega2560/avr6/crtatmega2560.o
                0x00000000                __vector_default
                0x00000000                __vectors
 *(.vectors)
 *(.progmem.gcc*)
 .progmem.gcc_sw_table.microrl_insert_char
                0x000000e4       0xfe lib/helius_microrl/microrl.o
                0x000001e2                . = ALIGN (0x2)
                0x000001e2                __trampolines_start = .
 *(.trampolines)
 .trampolines   0x000001e2        0x0 linker stubs
 *(.trampolines*)
                0x000001e2                __trampolines_end = .
 *libprintf_flt.a:*(.progmem.data)
 *libc.a:*(.progmem.data)
 *(.progmem*)
 .progmem.data.__c.2693
                0x000001e2       0x1f src/cli_microrl.o
 .progmem.data.__c.2691
                0x00000201       0x1f src/cli_microrl.o
 .progmem.data.__c.2689
                0x00000220       0x1f src/cli_microrl.o
 .progmem.data.__c.2687
                0x0000023f       0x1f src/cli_microrl.o
 .progmem.data.__c.2685
                0x0000025e       0x13 src/cli_microrl.o
 .progmem.data.__c.2683
                0x00000271        0xb src/cli_microrl.o
 .progmem.data.__c.2681
                0x0000027c        0xd src/cli_microrl.o
 .progmem.data.__c.2679
                0x00000289        0xd src/cli_microrl.o
 .progmem.data.__c.2677
                0x00000296        0xd src/cli_microrl.o
 .progmem.data.__c.2675
                0x000002a3       0x20 src/cli_microrl.o
 .progmem.data.__c.2673
                0x000002c3        0xa src/cli_microrl.o
 .progmem.data.__c.2671
                0x000002cd        0xa src/cli_microrl.o
 .progmem.data.__c.2669
                0x000002d7       0x12 src/cli_microrl.o
 .progmem.data.__c.2653
                0x000002e9       0x19 src/cli_microrl.o
 .progmem.data.__c.2645
                0x00000302       0x19 src/cli_microrl.o
 .progmem.data.__c.2643
                0x0000031b        0x2 src/cli_microrl.o
 .progmem.data.__c.2637
                0x0000031d        0xb src/cli_microrl.o
 .progmem.data.__c.2635
                0x00000328       0x11 src/cli_microrl.o
 .progmem.data.__c.2633
                0x00000339       0x13 src/cli_microrl.o
 .progmem.data.__c.2626
                0x0000034c       0x39 src/cli_microrl.o
 .progmem.data.__c.2624
                0x00000385        0x2 src/cli_microrl.o
 .progmem.data.__c.2619
                0x00000387       0x32 src/cli_microrl.o
 .progmem.data.__c.2617
                0x000003b9        0x2 src/cli_microrl.o
 .progmem.data.__c.2603
                0x000003bb        0x4 src/cli_microrl.o
 .progmem.data.__c.2586
                0x000003bf        0x2 src/cli_microrl.o
 .progmem.data.__c.2579
                0x000003c1       0x2d src/cli_microrl.o
 .progmem.data.__c.2581
                0x000003ee        0x6 src/cli_microrl.o
 .progmem.data.__c.2571
                0x000003f4       0x1d src/cli_microrl.o
 .progmem.data.__c.2573
                0x00000411       0x16 src/cli_microrl.o
 .progmem.data.__c.2575
                0x00000427        0xc src/cli_microrl.o
 .progmem.data.__c.2577
                0x00000433        0x9 src/cli_microrl.o
 .progmem.data.__c.2563
                0x0000043c        0x2 src/cli_microrl.o
 .progmem.data.__c.2561
                0x0000043e        0x4 src/cli_microrl.o
 .progmem.data.__c.2558
                0x00000442       0x17 src/cli_microrl.o
 .progmem.data.__c.2556
                0x00000459        0x2 src/cli_microrl.o
 .progmem.data.mem_help
                0x0000045b       0x38 src/hmi_msg.o
                0x0000045b                mem_help
 .progmem.data.mem_cmd
                0x00000493        0x4 src/hmi_msg.o
                0x00000493                mem_cmd
 .progmem.data.access_denied_msg
                0x00000497        0xf src/hmi_msg.o
                0x00000497                access_denied_msg
 .progmem.data.print_help
                0x000004a6       0x1e src/hmi_msg.o
                0x000004a6                print_help
 .progmem.data.print_cmd
                0x000004c4        0x6 src/hmi_msg.o
                0x000004c4                print_cmd
 .progmem.data.remove_help
                0x000004ca       0x32 src/hmi_msg.o
                0x000004ca                remove_help
 .progmem.data.remove_cmd
                0x000004fc        0x3 src/hmi_msg.o
                0x000004fc                remove_cmd
 .progmem.data.add_help
                0x000004ff       0x37 src/hmi_msg.o
                0x000004ff                add_help
 .progmem.data.add_cmd
                0x00000536        0x4 src/hmi_msg.o
                0x00000536                add_cmd
 .progmem.data.read_help
                0x0000053a       0x23 src/hmi_msg.o
                0x0000053a                read_help
 .progmem.data.read_cmd
                0x0000055d        0x5 src/hmi_msg.o
                0x0000055d                read_cmd
 .progmem.data.month_help
                0x00000562       0x3c src/hmi_msg.o
                0x00000562                month_help
 .progmem.data.month_cmd
                0x0000059e        0x6 src/hmi_msg.o
                0x0000059e                month_cmd
 .progmem.data.ascii_help
                0x000005a4       0x13 src/hmi_msg.o
                0x000005a4                ascii_help
 .progmem.data.ascii_cmd
                0x000005b7        0x6 src/hmi_msg.o
                0x000005b7                ascii_cmd
 .progmem.data.ver_help
                0x000005bd       0x11 src/hmi_msg.o
                0x000005bd                ver_help
 .progmem.data.ver_cmd
                0x000005ce        0x8 src/hmi_msg.o
                0x000005ce                ver_cmd
 .progmem.data.help_help
                0x000005d6        0x9 src/hmi_msg.o
                0x000005d6                help_help
 .progmem.data.help_cmd
                0x000005df        0x5 src/hmi_msg.o
                0x000005df                help_cmd
 .progmem.data.months
                0x000005e4        0xc src/hmi_msg.o
                0x000005e4                months
 .progmem.data.string_6
                0x000005f0        0x5 src/hmi_msg.o
 .progmem.data.string_5
                0x000005f5        0x4 src/hmi_msg.o
 .progmem.data.string_4
                0x000005f9        0x6 src/hmi_msg.o
 .progmem.data.string_3
                0x000005ff        0x6 src/hmi_msg.o
 .progmem.data.string_2
                0x00000605        0x9 src/hmi_msg.o
 .progmem.data.string_1
                0x0000060e        0x8 src/hmi_msg.o
 .progmem.data.__c.2470
                0x00000616        0xf src/main.o
 .progmem.data.__c.2456
                0x00000625       0x11 src/main.o
 .progmem.data.__c.2454
                0x00000636       0x87 src/main.o
 .progmem.data.__c.2452
                0x000006bd       0x11 src/main.o
 .progmem.data.__c.2250
                0x000006ce       0x30 src/rfid.o
 .progmem.data.__c.2245
                0x000006fe        0x2 src/rfid.o
 .progmem.data.__c.2243
                0x00000700        0x9 src/rfid.o
 .progmem.data.__c.2241
                0x00000709       0x15 src/rfid.o
 .progmem.data.__c.2239
                0x0000071e        0x2 src/rfid.o
 .progmem.data.__c.2237
                0x00000720        0x9 src/rfid.o
 .progmem.data.__c.2235
                0x00000729       0x15 src/rfid.o
 .progmem.data.__c.2229
                0x0000073e       0x16 src/rfid.o
 .progmem.data.__c.2212
                0x00000754        0xc src/rfid.o
 .progmem.data.__c.2206
                0x00000760       0x52 src/rfid.o
 .progmem.data.__c.2202
                0x000007b2       0x45 src/rfid.o
 .progmem.data.__c.2193
                0x000007f7       0x18 src/rfid.o
 .progmem.data.__c.2189
                0x0000080f       0x16 src/rfid.o
 .progmem.data.__c.2184
                0x00000825        0x2 src/rfid.o
 .progmem.data.__c.2182
                0x00000827        0x9 src/rfid.o
 .progmem.data.__c.2176
                0x00000830        0x4 src/rfid.o
 .progmem.data.__c.2174
                0x00000834        0x7 src/rfid.o
                0x0000083c                . = ALIGN (0x2)
 *fill*         0x0000083b        0x1 
 *(.jumptables)
 *(.jumptables*)
 *(.lowtext)
 *(.lowtext*)
                0x0000083c                __ctors_start = .
 *(.ctors)
                0x0000083c                __ctors_end = .
                0x0000083c                __dtors_start = .
 *(.dtors)
                0x0000083c                __dtors_end = .
 SORT(*)(.ctors)
 SORT(*)(.dtors)
 *(.init0)
 .init0         0x0000083c        0x0 C:/Program Files (x86)/Atmel/Studio/7.0/Packs/atmel/ATmega_DFP/1.1.130/gcc/dev/atmega2560/avr6/crtatmega2560.o
                0x0000083c                __init
 *(.init0)
 *(.init1)
 *(.init1)
 *(.init2)
 .init2         0x0000083c       0x10 C:/Program Files (x86)/Atmel/Studio/7.0/Packs/atmel/ATmega_DFP/1.1.130/gcc/dev/atmega2560/avr6/crtatmega2560.o
 *(.init2)
 *(.init3)
 *(.init3)
 *(.init4)
 .init4         0x0000084c       0x1a c:/program files (x86)/atmel/studio/7.0/toolchain/avr8/avr8-gnu-toolchain/bin/../lib/gcc/avr/4.9.2/avr6\libgcc.a(_copy_data.o)
                0x0000084c                __do_copy_data
 .init4         0x00000866       0x10 c:/program files (x86)/atmel/studio/7.0/toolchain/avr8/avr8-gnu-toolchain/bin/../lib/gcc/avr/4.9.2/avr6\libgcc.a(_clear_bss.o)
                0x00000866                __do_clear_bss
 *(.init4)
 *(.init5)
 *(.init5)
 *(.init6)
 *(.init6)
 *(.init7)
 *(.init7)
 *(.init8)
 *(.init8)
 *(.init9)
 .init9         0x00000876        0x8 C:/Program Files (x86)/Atmel/Studio/7.0/Packs/atmel/ATmega_DFP/1.1.130/gcc/dev/atmega2560/avr6/crtatmega2560.o
 *(.init9)
 *(.text)
 .text          0x0000087e        0x2 C:/Program Files (x86)/Atmel/Studio/7.0/Packs/atmel/ATmega_DFP/1.1.130/gcc/dev/atmega2560/avr6/crtatmega2560.o
                0x0000087e                __vector_38
                0x0000087e                __vector_22
                0x0000087e                __vector_28
                0x0000087e                __vector_1
                0x0000087e                __vector_32
                0x0000087e                __vector_34
                0x0000087e                __vector_12
                0x0000087e                __vector_46
                0x0000087e                __bad_interrupt
                0x0000087e                __vector_6
                0x0000087e                __vector_31
                0x0000087e                __vector_35
                0x0000087e                __vector_39
                0x0000087e                __vector_3
                0x0000087e                __vector_23
                0x0000087e                __vector_30
                0x0000087e                __vector_45
                0x0000087e                __vector_11
                0x0000087e                __vector_13
                0x0000087e                __vector_17
                0x0000087e                __vector_19
                0x0000087e                __vector_56
                0x0000087e                __vector_7
                0x0000087e                __vector_49
                0x0000087e                __vector_41
                0x0000087e                __vector_43
                0x0000087e                __vector_27
                0x0000087e                __vector_5
                0x0000087e                __vector_33
                0x0000087e                __vector_52
                0x0000087e                __vector_37
                0x0000087e                __vector_4
                0x0000087e                __vector_44
                0x0000087e                __vector_51
                0x0000087e                __vector_9
                0x0000087e                __vector_2
                0x0000087e                __vector_21
                0x0000087e                __vector_15
                0x0000087e                __vector_36
                0x0000087e                __vector_29
                0x0000087e                __vector_40
                0x0000087e                __vector_8
                0x0000087e                __vector_48
                0x0000087e                __vector_14
                0x0000087e                __vector_53
                0x0000087e                __vector_10
                0x0000087e                __vector_50
                0x0000087e                __vector_16
                0x0000087e                __vector_18
                0x0000087e                __vector_20
                0x0000087e                __vector_42
                0x00000880                . = ALIGN (0x2)
 *(.text.*)
 .text.__vector_25
                0x00000880       0x72 lib/andygock_avr-uart/uart.o
                0x00000880                __vector_25
 .text.__vector_26
                0x000008f2       0x60 lib/andygock_avr-uart/uart.o
                0x000008f2                __vector_26
 .text.uart0_init
                0x00000952       0x32 lib/andygock_avr-uart/uart.o
                0x00000952                uart0_init
 .text.uart0_getc
                0x00000984       0x3a lib/andygock_avr-uart/uart.o
                0x00000984                uart0_getc
 .text.uart0_peek
                0x000009be       0x34 lib/andygock_avr-uart/uart.o
                0x000009be                uart0_peek
 .text.uart0_putc
                0x000009f2       0x32 lib/andygock_avr-uart/uart.o
                0x000009f2                uart0_putc
 .text.__vector_54
                0x00000a24       0x72 lib/andygock_avr-uart/uart.o
                0x00000a24                __vector_54
 .text.__vector_55
                0x00000a96       0x60 lib/andygock_avr-uart/uart.o
                0x00000a96                __vector_55
 .text.uart3_init
                0x00000af6       0x32 lib/andygock_avr-uart/uart.o
                0x00000af6                uart3_init
 .text.uart3_putc
                0x00000b28       0x32 lib/andygock_avr-uart/uart.o
                0x00000b28                uart3_putc
 .text.getMemoryUsed
                0x00000b5a       0x4e lib/andy_brown_memdebug/memdebug.o
                0x00000b5a                getMemoryUsed
 .text.getFreeMemory
                0x00000ba8       0x30 lib/andy_brown_memdebug/memdebug.o
                0x00000ba8                getFreeMemory
 .text.getLargestBlockInFreeList
                0x00000bd8       0x2e lib/andy_brown_memdebug/memdebug.o
                0x00000bd8                getLargestBlockInFreeList
 .text.getNumberOfBlocksInFreeList
                0x00000c06       0x24 lib/andy_brown_memdebug/memdebug.o
                0x00000c06                getNumberOfBlocksInFreeList
 .text.getFreeListSize
                0x00000c2a       0x2e lib/andy_brown_memdebug/memdebug.o
                0x00000c2a                getFreeListSize
 .text.getLargestNonFreeListBlock
                0x00000c58       0x44 lib/andy_brown_memdebug/memdebug.o
                0x00000c58                getLargestNonFreeListBlock
 .text.getLargestAvailableMemoryBlock
                0x00000c9c       0x18 lib/andy_brown_memdebug/memdebug.o
                0x00000c9c                getLargestAvailableMemoryBlock
 .text.lcd_write
                0x00000cb4      0x10a lib/hd44780_111/hd44780.o
 .text.lcd_command
                0x00000dbe        0x6 lib/hd44780_111/hd44780.o
                0x00000dbe                lcd_command
 .text.lcd_goto
                0x00000dc4       0x26 lib/hd44780_111/hd44780.o
                0x00000dc4                lcd_goto
 .text.lcd_clrscr
                0x00000dea        0x6 lib/hd44780_111/hd44780.o
                0x00000dea                lcd_clrscr
 .text.lcd_putc
                0x00000df0        0x6 lib/hd44780_111/hd44780.o
                0x00000df0                lcd_putc
 .text.lcd_puts
                0x00000df6       0x1e lib/hd44780_111/hd44780.o
                0x00000df6                lcd_puts
 .text.lcd_puts_P
                0x00000e14       0x22 lib/hd44780_111/hd44780.o
                0x00000e14                lcd_puts_P
 .text.lcd_init
                0x00000e36      0x12a lib/hd44780_111/hd44780.o
                0x00000e36                lcd_init
 .text.lcd_clr  0x00000f60       0x38 lib/hd44780_111/hd44780.o
                0x00000f60                lcd_clr
 .text.terminal_reset_cursor
                0x00000f98       0x7a lib/helius_microrl/microrl.o
 .text.terminal_move_cursor
                0x00001012       0xae lib/helius_microrl/microrl.o
 .text.terminal_print_line
                0x000010c0       0xc8 lib/helius_microrl/microrl.o
 .text.microrl_backspace
                0x00001188       0x8e lib/helius_microrl/microrl.o
 .text.microrl_init
                0x00001216       0x4e lib/helius_microrl/microrl.o
                0x00001216                microrl_init
 .text.microrl_set_execute_callback
                0x00001264        0xc lib/helius_microrl/microrl.o
                0x00001264                microrl_set_execute_callback
 .text.new_line_handler
                0x00001270      0x15c lib/helius_microrl/microrl.o
                0x00001270                new_line_handler
 .text.microrl_insert_char
                0x000013cc      0x212 lib/helius_microrl/microrl.o
                0x000013cc                microrl_insert_char
 .text.MFRC522_init
                0x000015de       0x1e lib/matejx_avr_lib/mfrc522.o
                0x000015de                MFRC522_init
 .text.PCD_WriteRegister
                0x000015fc       0x14 lib/matejx_avr_lib/mfrc522.o
                0x000015fc                PCD_WriteRegister
 .text.PCD_WriteRegister2
                0x00001610       0x44 lib/matejx_avr_lib/mfrc522.o
                0x00001610                PCD_WriteRegister2
 .text.PCD_ReadRegister
                0x00001654       0x10 lib/matejx_avr_lib/mfrc522.o
                0x00001654                PCD_ReadRegister
 .text.PCD_ReadRegister2
                0x00001664       0xc4 lib/matejx_avr_lib/mfrc522.o
                0x00001664                PCD_ReadRegister2
 .text.PCD_SetRegisterBitMask
                0x00001728       0x18 lib/matejx_avr_lib/mfrc522.o
                0x00001728                PCD_SetRegisterBitMask
 .text.PCD_ClearRegisterBitMask
                0x00001740       0x1a lib/matejx_avr_lib/mfrc522.o
                0x00001740                PCD_ClearRegisterBitMask
 .text.PCD_CalculateCRC
                0x0000175a       0x6e lib/matejx_avr_lib/mfrc522.o
                0x0000175a                PCD_CalculateCRC
 .text.PCD_Reset
                0x000017c8       0x34 lib/matejx_avr_lib/mfrc522.o
                0x000017c8                PCD_Reset
 .text.PCD_AntennaOn
                0x000017fc       0x16 lib/matejx_avr_lib/mfrc522.o
                0x000017fc                PCD_AntennaOn
 .text.PCD_Init
                0x00001812       0x54 lib/matejx_avr_lib/mfrc522.o
                0x00001812                PCD_Init
 .text.PCD_CommunicateWithPICC
                0x00001866      0x1b6 lib/matejx_avr_lib/mfrc522.o
                0x00001866                PCD_CommunicateWithPICC
 .text.PCD_TransceiveData
                0x00001a1c       0x36 lib/matejx_avr_lib/mfrc522.o
                0x00001a1c                PCD_TransceiveData
 .text.PICC_REQA_or_WUPA
                0x00001a52       0x8a lib/matejx_avr_lib/mfrc522.o
                0x00001a52                PICC_REQA_or_WUPA
 .text.PICC_RequestA
                0x00001adc        0xa lib/matejx_avr_lib/mfrc522.o
                0x00001adc                PICC_RequestA
 .text.PICC_Select
                0x00001ae6      0x37e lib/matejx_avr_lib/mfrc522.o
                0x00001ae6                PICC_Select
 .text.PICC_IsNewCardPresent
                0x00001e64       0x32 lib/matejx_avr_lib/mfrc522.o
                0x00001e64                PICC_IsNewCardPresent
 .text.PICC_ReadCardSerial
                0x00001e96       0x10 lib/matejx_avr_lib/mfrc522.o
                0x00001e96                PICC_ReadCardSerial
 .text.spi_init
                0x00001ea6       0x1e lib/matejx_avr_lib/spi.o
                0x00001ea6                spi_init
 .text.spi_rw   0x00001ec4       0x12 lib/matejx_avr_lib/spi.o
                0x00001ec4                spi_rw
 .text.__vector_24
                0x00001ed6       0x14 lib/matejx_avr_lib/spi.o
                0x00001ed6                __vector_24
 .text.cli_print_help
                0x00001eea       0xa2 src/cli_microrl.o
                0x00001eea                cli_print_help
 .text.cli_print_ascii_tbls
                0x00001f8c       0x7a src/cli_microrl.o
                0x00001f8c                cli_print_ascii_tbls
 .text.cli_handle_month
                0x00002006       0xcc src/cli_microrl.o
                0x00002006                cli_handle_month
 .text.cli_rfid_read
                0x000020d2       0xe6 src/cli_microrl.o
                0x000020d2                cli_rfid_read
 .text.cli_rfid_add
                0x000021b8       0x90 src/cli_microrl.o
                0x000021b8                cli_rfid_add
 .text.cli_rfid_remove
                0x00002248        0xa src/cli_microrl.o
                0x00002248                cli_rfid_remove
 .text.cli_rfid_print
                0x00002252        0x4 src/cli_microrl.o
                0x00002252                cli_rfid_print
 .text.cli_mem_stat
                0x00002256      0x132 src/cli_microrl.o
                0x00002256                cli_mem_stat
 .text.cli_print
                0x00002388       0x18 src/cli_microrl.o
                0x00002388                cli_print
 .text.cli_get_char
                0x000023a0       0x14 src/cli_microrl.o
                0x000023a0                cli_get_char
 .text.print_version
                0x000023b4       0x5a src/cli_microrl.o
                0x000023b4                print_version
 .text.cli_print_ver
                0x0000240e       0x1a src/cli_microrl.o
                0x0000240e                cli_print_ver
 .text.cli_print_cmd_error
                0x00002428       0x1e src/cli_microrl.o
                0x00002428                cli_print_cmd_error
 .text.cli_print_cmd_arg_error
                0x00002446       0x1e src/cli_microrl.o
                0x00002446                cli_print_cmd_arg_error
 .text.cli_execute
                0x00002464       0xba src/cli_microrl.o
                0x00002464                cli_execute
 .text.main     0x0000251e      0x276 src/main.o
                0x0000251e                main
 .text.__vector_47
                0x00002794       0x4a src/main.o
                0x00002794                __vector_47
 .text.print_ascii_tbl
                0x000027de       0x62 src/print_helper.o
                0x000027de                print_ascii_tbl
 .text.print_for_human
                0x00002840       0xb8 src/print_helper.o
                0x00002840                print_for_human
 .text.rfid_print_card_info
                0x000028f8       0xc0 src/rfid.o
                0x000028f8                rfid_print_card_info
 .text.rfid_print_card_list
                0x000029b8       0x70 src/rfid.o
                0x000029b8                rfid_print_card_list
 .text.rfid_find_card
                0x00002a28       0x4e src/rfid.o
                0x00002a28                rfid_find_card
 .text.rfid_add_card
                0x00002a76       0xce src/rfid.o
                0x00002a76                rfid_add_card
 .text.rfid_remove_card_by_uid
                0x00002b44      0x1c6 src/rfid.o
                0x00002b44                rfid_remove_card_by_uid
 .text.uart0_putchar
                0x00002d0a       0x1c src/uart-wrapper.o
                0x00002d0a                uart0_putchar
 .text.uart0_getchar
                0x00002d26       0x12 src/uart-wrapper.o
                0x00002d26                uart0_getchar
 .text.uart3_putchar
                0x00002d38       0x1c src/uart-wrapper.o
                0x00002d38                uart3_putchar
 .text.libgcc   0x00002d54       0x10 c:/program files (x86)/atmel/studio/7.0/toolchain/avr8/avr8-gnu-toolchain/bin/../lib/gcc/avr/4.9.2/avr6\libgcc.a(_tablejump2.o)
                0x00002d54                __tablejump2__
 .text.avr-libc
                0x00002d64       0x68 c:/program files (x86)/atmel/studio/7.0/toolchain/avr8/avr8-gnu-toolchain/bin/../lib/gcc/avr/4.9.2/../../../../avr/lib/avr6\libc.a(assert.o)
                0x00002d64                __assert
 .text.avr-libc
                0x00002dcc      0x25a c:/program files (x86)/atmel/studio/7.0/toolchain/avr8/avr8-gnu-toolchain/bin/../lib/gcc/avr/4.9.2/../../../../avr/lib/avr6\libc.a(malloc.o)
                0x00002dcc                malloc
                0x00002ef6                free
 .text.avr-libc
                0x00003026        0x8 c:/program files (x86)/atmel/studio/7.0/toolchain/avr8/avr8-gnu-toolchain/bin/../lib/gcc/avr/4.9.2/../../../../avr/lib/avr6\libc.a(abort.o)
                0x00003026                abort
 .text.avr-libc
                0x0000302e       0x12 c:/program files (x86)/atmel/studio/7.0/toolchain/avr8/avr8-gnu-toolchain/bin/../lib/gcc/avr/4.9.2/../../../../avr/lib/avr6\libc.a(strcmp_P.o)
                0x0000302e                strcmp_P
 .text.avr-libc
                0x00003040       0x1c c:/program files (x86)/atmel/studio/7.0/toolchain/avr8/avr8-gnu-toolchain/bin/../lib/gcc/avr/4.9.2/../../../../avr/lib/avr6\libc.a(strncmp_P.o)
                0x00003040                strncmp_P
 .text.avr-libc
                0x0000305c       0x1a c:/program files (x86)/atmel/studio/7.0/toolchain/avr8/avr8-gnu-toolchain/bin/../lib/gcc/avr/4.9.2/../../../../avr/lib/avr6\libc.a(memcmp.o)
                0x0000305c                memcmp
 .text.avr-libc
                0x00003076       0x12 c:/program files (x86)/atmel/studio/7.0/toolchain/avr8/avr8-gnu-toolchain/bin/../lib/gcc/avr/4.9.2/../../../../avr/lib/avr6\libc.a(memcpy.o)
                0x00003076                memcpy
 .text.avr-libc
                0x00003088       0x22 c:/program files (x86)/atmel/studio/7.0/toolchain/avr8/avr8-gnu-toolchain/bin/../lib/gcc/avr/4.9.2/../../../../avr/lib/avr6\libc.a(memmove.o)
                0x00003088                memmove
 .text.avr-libc
                0x000030aa       0x16 c:/program files (x86)/atmel/studio/7.0/toolchain/avr8/avr8-gnu-toolchain/bin/../lib/gcc/avr/4.9.2/../../../../avr/lib/avr6\libc.a(strcat.o)
                0x000030aa                strcat
 .text.avr-libc
                0x000030c0       0x12 c:/program files (x86)/atmel/studio/7.0/toolchain/avr8/avr8-gnu-toolchain/bin/../lib/gcc/avr/4.9.2/../../../../avr/lib/avr6\libc.a(strcmp.o)
                0x000030c0                strcmp
 .text.avr-libc
                0x000030d2        0xe c:/program files (x86)/atmel/studio/7.0/toolchain/avr8/avr8-gnu-toolchain/bin/../lib/gcc/avr/4.9.2/../../../../avr/lib/avr6\libc.a(strcpy.o)
                0x000030d2                strcpy
 .text.avr-libc
                0x000030e0       0x1e c:/program files (x86)/atmel/studio/7.0/toolchain/avr8/avr8-gnu-toolchain/bin/../lib/gcc/avr/4.9.2/../../../../avr/lib/avr6\libc.a(fprintf.o)
                0x000030e0                fprintf
 .text.avr-libc
                0x000030fe       0x38 c:/program files (x86)/atmel/studio/7.0/toolchain/avr8/avr8-gnu-toolchain/bin/../lib/gcc/avr/4.9.2/../../../../avr/lib/avr6\libc.a(fprintf_p.o)
                0x000030fe                fprintf_P
 .text.avr-libc
                0x00003136       0x70 c:/program files (x86)/atmel/studio/7.0/toolchain/avr8/avr8-gnu-toolchain/bin/../lib/gcc/avr/4.9.2/../../../../avr/lib/avr6\libc.a(fputc.o)
                0x00003136                fputc
 .text.avr-libc
                0x000031a6       0x26 c:/program files (x86)/atmel/studio/7.0/toolchain/avr8/avr8-gnu-toolchain/bin/../lib/gcc/avr/4.9.2/../../../../avr/lib/avr6\libc.a(printf.o)
                0x000031a6                printf
 .text.avr-libc
                0x000031cc       0x4e c:/program files (x86)/atmel/studio/7.0/toolchain/avr8/avr8-gnu-toolchain/bin/../lib/gcc/avr/4.9.2/../../../../avr/lib/avr6\libc.a(printf_p.o)
                0x000031cc                printf_P
 .text.avr-libc
                0x0000321a       0x78 c:/program files (x86)/atmel/studio/7.0/toolchain/avr8/avr8-gnu-toolchain/bin/../lib/gcc/avr/4.9.2/../../../../avr/lib/avr6\libc.a(snprintf.o)
                0x0000321a                snprintf
 .text.avr-libc
                0x00003292       0x5e c:/program files (x86)/atmel/studio/7.0/toolchain/avr8/avr8-gnu-toolchain/bin/../lib/gcc/avr/4.9.2/../../../../avr/lib/avr6\libc.a(sprintf.o)
                0x00003292                sprintf
 .text.avr-libc
                0x000032f0      0x3dc c:/program files (x86)/atmel/studio/7.0/toolchain/avr8/avr8-gnu-toolchain/bin/../lib/gcc/avr/4.9.2/../../../../avr/lib/avr6\libc.a(vfprintf_std.o)
                0x000032f0                vfprintf
 .text.avr-libc
                0x000036cc       0x16 c:/program files (x86)/atmel/studio/7.0/toolchain/avr8/avr8-gnu-toolchain/bin/../lib/gcc/avr/4.9.2/../../../../avr/lib/avr6\libc.a(strnlen_P.o)
                0x000036cc                strnlen_P
 .text.avr-libc
                0x000036e2       0x16 c:/program files (x86)/atmel/studio/7.0/toolchain/avr8/avr8-gnu-toolchain/bin/../lib/gcc/avr/4.9.2/../../../../avr/lib/avr6\libc.a(strnlen.o)
                0x000036e2                strnlen
 .text.avr-libc
                0x000036f8       0xbc c:/program files (x86)/atmel/studio/7.0/toolchain/avr8/avr8-gnu-toolchain/bin/../lib/gcc/avr/4.9.2/../../../../avr/lib/avr6\libc.a(ultoa_invert.o)
                0x000036f8                __ultoa_invert
                0x000037b4                . = ALIGN (0x2)
 *(.fini9)
 .fini9         0x000037b4        0x0 c:/program files (x86)/atmel/studio/7.0/toolchain/avr8/avr8-gnu-toolchain/bin/../lib/gcc/avr/4.9.2/avr6\libgcc.a(_exit.o)
                0x000037b4                _exit
                0x000037b4                exit
 *(.fini9)
 *(.fini8)
 *(.fini8)
 *(.fini7)
 *(.fini7)
 *(.fini6)
 *(.fini6)
 *(.fini5)
 *(.fini5)
 *(.fini4)
 *(.fini4)
 *(.fini3)
 *(.fini3)
 *(.fini2)
 *(.fini2)
 *(.fini1)
 *(.fini1)
 *(.fini0)
 .fini0         0x000037b4        0x4 c:/program files (x86)/atmel/studio/7.0/toolchain/avr8/avr8-gnu-toolchain/bin/../lib/gcc/avr/4.9.2/avr6\libgcc.a(_exit.o)
 *(.fini0)
                0x000037b8                _etext = .

.data           0x00800200      0x166 load address 0x000037b8
                0x00800200                PROVIDE (__data_start, .)
 *(.data)
 .data          0x00800200        0x6 c:/program files (x86)/atmel/studio/7.0/toolchain/avr8/avr8-gnu-toolchain/bin/../lib/gcc/avr/4.9.2/../../../../avr/lib/avr6\libc.a(malloc.o)
                0x00800200                __malloc_heap_end
                0x00800202                __malloc_heap_start
                0x00800204                __malloc_margin
 *(.data*)
 .data.prompt_default
                0x00800206        0x2 lib/helius_microrl/microrl.o
                0x00800206                prompt_default
 .data.prl      0x00800208        0x2 src/main.o
                0x00800208                prl
 .data.uart3_out
                0x0080020a        0xe src/main.o
                0x0080020a                uart3_out
 .data.uart0_io
                0x00800218        0xe src/main.o
                0x00800218                uart0_io
 *(.rodata)
 *(.rodata*)
 .rodata.str1.1
                0x00800226       0x30 lib/hd44780_111/hd44780.o
 .rodata.__func__.1838
                0x00800256        0x9 lib/hd44780_111/hd44780.o
 .rodata.str1.1
                0x0080025f       0x37 lib/helius_microrl/microrl.o
                                 0x3d (size before relaxing)
 .rodata.str1.1
                0x00800296       0x18 src/cli_microrl.o
 .rodata.cli_cmds
                0x008002ae       0x3f src/cli_microrl.o
                0x008002ae                cli_cmds
 .rodata.str1.1
                0x008002ed       0x10 src/print_helper.o
                                 0x12 (size before relaxing)
 .rodata.str1.1
                0x008002fd        0x6 src/rfid.o
                                  0xe (size before relaxing)
 .rodata.str1.1
                0x00800303       0x63 c:/program files (x86)/atmel/studio/7.0/toolchain/avr8/avr8-gnu-toolchain/bin/../lib/gcc/avr/4.9.2/../../../../avr/lib/avr6\libc.a(assert.o)
 *(.gnu.linkonce.d*)
                0x00800366                . = ALIGN (0x2)
                0x00800366                _edata = .
                0x00800366                PROVIDE (__data_end, .)

.bss            0x00800366      0x299
                0x00800366                PROVIDE (__bss_start, .)
 *(.bss)
 *(.bss*)
 .bss.UART3_LastRxError
                0x00800366        0x1 lib/andygock_avr-uart/uart.o
 .bss.UART3_RxTail
                0x00800367        0x1 lib/andygock_avr-uart/uart.o
 .bss.UART3_RxHead
                0x00800368        0x1 lib/andygock_avr-uart/uart.o
 .bss.UART3_TxTail
                0x00800369        0x1 lib/andygock_avr-uart/uart.o
 .bss.UART3_TxHead
                0x0080036a        0x1 lib/andygock_avr-uart/uart.o
 .bss.UART3_RxBuf
                0x0080036b       0x80 lib/andygock_avr-uart/uart.o
 .bss.UART3_TxBuf
                0x008003eb       0x80 lib/andygock_avr-uart/uart.o
 .bss.UART_LastRxError
                0x0080046b        0x1 lib/andygock_avr-uart/uart.o
 .bss.UART_RxTail
                0x0080046c        0x1 lib/andygock_avr-uart/uart.o
 .bss.UART_RxHead
                0x0080046d        0x1 lib/andygock_avr-uart/uart.o
 .bss.UART_TxTail
                0x0080046e        0x1 lib/andygock_avr-uart/uart.o
 .bss.UART_TxHead
                0x0080046f        0x1 lib/andygock_avr-uart/uart.o
 .bss.UART_RxBuf
                0x00800470       0x80 lib/andygock_avr-uart/uart.o
 .bss.UART_TxBuf
                0x008004f0       0x80 lib/andygock_avr-uart/uart.o
 .bss.prev_space.2668
                0x00800570        0x2 src/cli_microrl.o
 .bss.message_start.2477
                0x00800572        0x4 src/main.o
 .bss.door_open_start.2478
                0x00800576        0x4 src/main.o
 .bss.current_time.2463
                0x0080057a        0x4 src/main.o
 .bss.head      0x0080057e        0x2 src/rfid.o
                0x0080057e                head
 *(COMMON)
 COMMON         0x00800580       0x75 src/main.o
                0x00800580                rl
                0x008005f1                system_time
 COMMON         0x008005f5        0x4 c:/program files (x86)/atmel/studio/7.0/toolchain/avr8/avr8-gnu-toolchain/bin/../lib/gcc/avr/4.9.2/../../../../avr/lib/avr6\libc.a(malloc.o)
                0x008005f5                __brkval
                0x008005f7                __flp
 COMMON         0x008005f9        0x6 c:/program files (x86)/atmel/studio/7.0/toolchain/avr8/avr8-gnu-toolchain/bin/../lib/gcc/avr/4.9.2/../../../../avr/lib/avr6\libc.a(iob.o)
                0x008005f9                __iob
                0x008005ff                PROVIDE (__bss_end, .)
                0x000037b8                __data_load_start = LOADADDR (.data)
                0x0000391e                __data_load_end = (__data_load_start + SIZEOF (.data))

.noinit         0x008005ff        0x0
                [!provide]                PROVIDE (__noinit_start, .)
 *(.noinit*)
                [!provide]                PROVIDE (__noinit_end, .)
                0x008005ff                _end = .
                0x008005ff                PROVIDE (__heap_start, .)

.eeprom         0x00810000        0x0
 *(.eeprom*)
                0x00810000                __eeprom_end = .

.fuse
 *(.fuse)
 *(.lfuse)
 *(.hfuse)
 *(.efuse)

.lock
 *(.lock*)

.signature
 *(.signature*)

.user_signatures
 *(.user_signatures*)

.stab
 *(.stab)

.stabstr
 *(.stabstr)

.stab.excl
 *(.stab.excl)

.stab.exclstr
 *(.stab.exclstr)

.stab.index
 *(.stab.index)

.stab.indexstr
 *(.stab.indexstr)

.comment        0x00000000       0x5c
 *(.comment)
 .comment       0x00000000       0x30 lib/andygock_avr-uart/uart.o
                                 0x31 (size before relaxing)
 .comment       0x00000030       0x31 lib/andy_brown_memdebug/memdebug.o
 .comment       0x00000030       0x31 lib/hd44780_111/hd44780.o
 .comment       0x00000030       0x31 lib/helius_microrl/microrl.o
 .comment       0x00000030       0x31 lib/matejx_avr_lib/mfrc522.o
 .comment       0x00000030       0x31 lib/matejx_avr_lib/spi.o
 .comment       0x00000030       0x31 src/cli_microrl.o
 .comment       0x00000030       0x31 src/hmi_msg.o
 .comment       0x00000030       0x31 src/main.o
 .comment       0x00000030       0x31 src/print_helper.o
 .comment       0x00000030       0x31 src/rfid.o
 .comment       0x00000030       0x31 src/uart-wrapper.o
 .comment       0x00000030       0x31 c:/program files (x86)/atmel/studio/7.0/toolchain/avr8/avr8-gnu-toolchain/bin/../lib/gcc/avr/4.9.2/../../../../avr/lib/avr6\libc.a(assert.o)
 .comment       0x00000030       0x31 c:/program files (x86)/atmel/studio/7.0/toolchain/avr8/avr8-gnu-toolchain/bin/../lib/gcc/avr/4.9.2/../../../../avr/lib/avr6\libc.a(malloc.o)
 .comment       0x00000030       0x31 c:/program files (x86)/atmel/studio/7.0/toolchain/avr8/avr8-gnu-toolchain/bin/../lib/gcc/avr/4.9.2/../../../../avr/lib/avr6\libc.a(fprintf.o)
 .comment       0x00000030       0x31 c:/program files (x86)/atmel/studio/7.0/toolchain/avr8/avr8-gnu-toolchain/bin/../lib/gcc/avr/4.9.2/../../../../avr/lib/avr6\libc.a(fprintf_p.o)
 .comment       0x00000030       0x31 c:/program files (x86)/atmel/studio/7.0/toolchain/avr8/avr8-gnu-toolchain/bin/../lib/gcc/avr/4.9.2/../../../../avr/lib/avr6\libc.a(fputc.o)
 .comment       0x00000030       0x31 c:/program files (x86)/atmel/studio/7.0/toolchain/avr8/avr8-gnu-toolchain/bin/../lib/gcc/avr/4.9.2/../../../../avr/lib/avr6\libc.a(iob.o)
 .comment       0x00000030       0x31 c:/program files (x86)/atmel/studio/7.0/toolchain/avr8/avr8-gnu-toolchain/bin/../lib/gcc/avr/4.9.2/../../../../avr/lib/avr6\libc.a(printf.o)
 .comment       0x00000030       0x31 c:/program files (x86)/atmel/studio/7.0/toolchain/avr8/avr8-gnu-toolchain/bin/../lib/gcc/avr/4.9.2/../../../../avr/lib/avr6\libc.a(printf_p.o)
 .comment       0x00000030       0x31 c:/program files (x86)/atmel/studio/7.0/toolchain/avr8/avr8-gnu-toolchain/bin/../lib/gcc/avr/4.9.2/../../../../avr/lib/avr6\libc.a(snprintf.o)
 .comment       0x00000030       0x31 c:/program files (x86)/atmel/studio/7.0/toolchain/avr8/avr8-gnu-toolchain/bin/../lib/gcc/avr/4.9.2/../../../../avr/lib/avr6\libc.a(sprintf.o)
 .comment       0x00000030       0x2c c:/program files (x86)/atmel/studio/7.0/toolchain/avr8/avr8-gnu-toolchain/bin/../lib/gcc/avr/4.9.2/../../../../avr/lib/avr6\libc.a(vfprintf_std.o)
                                 0x2d (size before relaxing)

.note.gnu.avr.deviceinfo
                0x00000000       0x40
 .note.gnu.avr.deviceinfo
                0x00000000       0x40 C:/Program Files (x86)/Atmel/Studio/7.0/Packs/atmel/ATmega_DFP/1.1.130/gcc/dev/atmega2560/avr6/crtatmega2560.o

.note.gnu.build-id
 *(.note.gnu.build-id)

.debug
 *(.debug)

.line
 *(.line)

.debug_srcinfo
 *(.debug_srcinfo)

.debug_sfnames
 *(.debug_sfnames)

.debug_aranges  0x00000000      0x448
 *(.debug_aranges)
 .debug_aranges
                0x00000000       0xb8 lib/andygock_avr-uart/uart.o
 .debug_aranges
                0x000000b8       0x50 lib/andy_brown_memdebug/memdebug.o
 .debug_aranges
                0x00000108       0x68 lib/hd44780_111/hd44780.o
 .debug_aranges
                0x00000170       0x60 lib/helius_microrl/microrl.o
 .debug_aranges
                0x000001d0       0xe0 lib/matejx_avr_lib/mfrc522.o
 .debug_aranges
                0x000002b0       0x30 lib/matejx_avr_lib/spi.o
 .debug_aranges
                0x000002e0       0x90 src/cli_microrl.o
 .debug_aranges
                0x00000370       0x18 src/hmi_msg.o
 .debug_aranges
                0x00000388       0x28 src/main.o
 .debug_aranges
                0x000003b0       0x28 src/print_helper.o
 .debug_aranges
                0x000003d8       0x40 src/rfid.o
 .debug_aranges
                0x00000418       0x30 src/uart-wrapper.o

.debug_pubnames
 *(.debug_pubnames)

.debug_info     0x00000000     0x635f
 *(.debug_info .gnu.linkonce.wi.*)
 .debug_info    0x00000000      0xbbc C:/Program Files (x86)/Atmel/Studio/7.0/Packs/atmel/ATmega_DFP/1.1.130/gcc/dev/atmega2560/avr6/crtatmega2560.o
 .debug_info    0x00000bbc      0x640 lib/andygock_avr-uart/uart.o
 .debug_info    0x000011fc      0x2a5 lib/andy_brown_memdebug/memdebug.o
 .debug_info    0x000014a1      0x51e lib/hd44780_111/hd44780.o
 .debug_info    0x000019bf      0x887 lib/helius_microrl/microrl.o
 .debug_info    0x00002246     0x17d8 lib/matejx_avr_lib/mfrc522.o
 .debug_info    0x00003a1e       0xd9 lib/matejx_avr_lib/spi.o
 .debug_info    0x00003af7      0xe7a src/cli_microrl.o
 .debug_info    0x00004971      0x3bf src/hmi_msg.o
 .debug_info    0x00004d30      0xab9 src/main.o
 .debug_info    0x000057e9      0x25e src/print_helper.o
 .debug_info    0x00005a47      0x685 src/rfid.o
 .debug_info    0x000060cc      0x293 src/uart-wrapper.o

.debug_abbrev   0x00000000     0x212b
 *(.debug_abbrev)
 .debug_abbrev  0x00000000      0xb1a C:/Program Files (x86)/Atmel/Studio/7.0/Packs/atmel/ATmega_DFP/1.1.130/gcc/dev/atmega2560/avr6/crtatmega2560.o
 .debug_abbrev  0x00000b1a      0x143 lib/andygock_avr-uart/uart.o
 .debug_abbrev  0x00000c5d      0x10a lib/andy_brown_memdebug/memdebug.o
 .debug_abbrev  0x00000d67      0x18c lib/hd44780_111/hd44780.o
 .debug_abbrev  0x00000ef3      0x2b4 lib/helius_microrl/microrl.o
 .debug_abbrev  0x000011a7      0x331 lib/matejx_avr_lib/mfrc522.o
 .debug_abbrev  0x000014d8       0xa5 lib/matejx_avr_lib/spi.o
 .debug_abbrev  0x0000157d      0x352 src/cli_microrl.o
 .debug_abbrev  0x000018cf       0x68 src/hmi_msg.o
 .debug_abbrev  0x00001937      0x361 src/main.o
 .debug_abbrev  0x00001c98      0x133 src/print_helper.o
 .debug_abbrev  0x00001dcb      0x1e2 src/rfid.o
 .debug_abbrev  0x00001fad      0x17e src/uart-wrapper.o

.debug_line     0x00000000     0x2e93
 *(.debug_line .debug_line.* .debug_line_end)
 .debug_line    0x00000000      0x1f9 C:/Program Files (x86)/Atmel/Studio/7.0/Packs/atmel/ATmega_DFP/1.1.130/gcc/dev/atmega2560/avr6/crtatmega2560.o
 .debug_line    0x000001f9      0x49b lib/andygock_avr-uart/uart.o
 .debug_line    0x00000694      0x293 lib/andy_brown_memdebug/memdebug.o
 .debug_line    0x00000927      0x4b4 lib/hd44780_111/hd44780.o
 .debug_line    0x00000ddb      0x484 lib/helius_microrl/microrl.o
 .debug_line    0x0000125f      0xb6b lib/matejx_avr_lib/mfrc522.o
 .debug_line    0x00001dca      0x119 lib/matejx_avr_lib/spi.o
 .debug_line    0x00001ee3      0x601 src/cli_microrl.o
 .debug_line    0x000024e4       0x2e src/hmi_msg.o
 .debug_line    0x00002512      0x383 src/main.o
 .debug_line    0x00002895      0x11a src/print_helper.o
 .debug_line    0x000029af      0x3a4 src/rfid.o
 .debug_line    0x00002d53      0x140 src/uart-wrapper.o

.debug_frame    0x00000000     0x1030
 *(.debug_frame)
 .debug_frame   0x00000000      0x22c lib/andygock_avr-uart/uart.o
 .debug_frame   0x0000022c       0x9c lib/andy_brown_memdebug/memdebug.o
 .debug_frame   0x000002c8       0xf0 lib/hd44780_111/hd44780.o
 .debug_frame   0x000003b8      0x1b8 lib/helius_microrl/microrl.o
 .debug_frame   0x00000570      0x460 lib/matejx_avr_lib/mfrc522.o
 .debug_frame   0x000009d0       0x50 lib/matejx_avr_lib/spi.o
 .debug_frame   0x00000a20      0x2d4 src/cli_microrl.o
 .debug_frame   0x00000cf4       0x64 src/main.o
 .debug_frame   0x00000d58       0xe4 src/print_helper.o
 .debug_frame   0x00000e3c      0x1a0 src/rfid.o
 .debug_frame   0x00000fdc       0x54 src/uart-wrapper.o

.debug_str      0x00000000     0x19a8
 *(.debug_str)
 .debug_str     0x00000000      0x3e6 C:/Program Files (x86)/Atmel/Studio/7.0/Packs/atmel/ATmega_DFP/1.1.130/gcc/dev/atmega2560/avr6/crtatmega2560.o
 .debug_str     0x000003e6      0x352 lib/andygock_avr-uart/uart.o
                                0x390 (size before relaxing)
 .debug_str     0x00000738      0x12f lib/andy_brown_memdebug/memdebug.o
                                0x2af (size before relaxing)
 .debug_str     0x00000867       0xbe lib/hd44780_111/hd44780.o
                                0x264 (size before relaxing)
 .debug_str     0x00000925      0x19e lib/helius_microrl/microrl.o
                                0x333 (size before relaxing)
 .debug_str     0x00000ac3      0x892 lib/matejx_avr_lib/mfrc522.o
                                0xa54 (size before relaxing)
 .debug_str     0x00001355       0x2d lib/matejx_avr_lib/spi.o
                                0x1ab (size before relaxing)
 .debug_str     0x00001382      0x2cc src/cli_microrl.o
                                0x5ed (size before relaxing)
 .debug_str     0x0000164e       0x59 src/hmi_msg.o
                                0x283 (size before relaxing)
 .debug_str     0x000016a7      0x204 src/main.o
                                0x564 (size before relaxing)
 .debug_str     0x000018ab       0x24 src/print_helper.o
                                0x1e1 (size before relaxing)
 .debug_str     0x000018cf       0x99 src/rfid.o
                                0x2bf (size before relaxing)
 .debug_str     0x00001968       0x40 src/uart-wrapper.o
                                0x212 (size before relaxing)

.debug_loc      0x00000000     0x4a3b
 *(.debug_loc)
 .debug_loc     0x00000000      0x72c lib/andygock_avr-uart/uart.o
 .debug_loc     0x0000072c      0x17e lib/andy_brown_memdebug/memdebug.o
 .debug_loc     0x000008aa      0x308 lib/hd44780_111/hd44780.o
 .debug_loc     0x00000bb2      0x97a lib/helius_microrl/microrl.o
 .debug_loc     0x0000152c     0x1dd4 lib/matejx_avr_lib/mfrc522.o
 .debug_loc     0x00003300       0x6e lib/matejx_avr_lib/spi.o
 .debug_loc     0x0000336e      0xa60 src/cli_microrl.o
 .debug_loc     0x00003dce       0xe2 src/main.o
 .debug_loc     0x00003eb0      0x3a5 src/print_helper.o
 .debug_loc     0x00004255      0x6fe src/rfid.o
 .debug_loc     0x00004953       0xe8 src/uart-wrapper.o

.debug_macinfo
 *(.debug_macinfo)

.debug_weaknames
 *(.debug_weaknames)

.debug_funcnames
 *(.debug_funcnames)

.debug_typenames
 *(.debug_typenames)

.debug_varnames
 *(.debug_varnames)

.debug_pubtypes
 *(.debug_pubtypes)

.debug_ranges   0x00000000      0x4a8
 *(.debug_ranges)
 .debug_ranges  0x00000000       0xd8 lib/andygock_avr-uart/uart.o
 .debug_ranges  0x000000d8       0x40 lib/andy_brown_memdebug/memdebug.o
 .debug_ranges  0x00000118       0x70 lib/hd44780_111/hd44780.o
 .debug_ranges  0x00000188       0x50 lib/helius_microrl/microrl.o
 .debug_ranges  0x000001d8      0x178 lib/matejx_avr_lib/mfrc522.o
 .debug_ranges  0x00000350       0x20 lib/matejx_avr_lib/spi.o
 .debug_ranges  0x00000370       0x80 src/cli_microrl.o
 .debug_ranges  0x000003f0       0x18 src/main.o
 .debug_ranges  0x00000408       0x18 src/print_helper.o
 .debug_ranges  0x00000420       0x68 src/rfid.o
 .debug_ranges  0x00000488       0x20 src/uart-wrapper.o

.debug_macro
 *(.debug_macro)
OUTPUT(Lab06.elf elf32-avr)
LOAD linker stubs
